target datalayout = "e-m:e-p270:32:32-p271:32:32-p272:64:64-i64:64-i128:128-f80:128-n8:16:32:64-S128"
target triple = "x86_64-pc-linux-gnu"

%struct._object = type { %union.anon, ptr }
%union.anon = type { i64 }
%struct._typeobject = type { %struct.PyVarObject, ptr, i64, i64, ptr, i64, ptr, ptr, ptr, ptr, ptr, ptr, ptr, ptr, ptr, ptr, ptr, ptr, ptr, i64, ptr, ptr, ptr, ptr, i64, ptr, ptr, ptr, ptr, ptr, ptr, ptr, ptr, ptr, i64, ptr, ptr, ptr, ptr, ptr, ptr, ptr, ptr, ptr, ptr, ptr, i32, ptr, ptr, i8, i16 }
%struct.PyVarObject = type { %struct._object, i64 }
%struct.anon = type { i32, i32 }
%struct.PyASCIIObject = type { %struct._object, i64, i64, %struct.anon.0 }
%struct.anon.0 = type { i16, i16 }

@PyExc_RuntimeError = external global ptr, align 8
@.str.12 = private unnamed_addr constant [42 x i8] c"subinterpreter can't use syslog.openlog()\00", align 1
@.str.13 = private unnamed_addr constant [15 x i8] c"syslog.openlog\00", align 1
@.str.14 = private unnamed_addr constant [4 x i8] c"Oll\00", align 1
@_Py_NoneStruct = external global %struct._object, align 8
@S_log_open = internal global i8 0, align 1
@S_ident_o = internal global ptr null, align 8
@.str.15 = private unnamed_addr constant [5 x i8] c"argv\00", align 1

; Function Attrs: alwaysinline nounwind uwtable
define internal i32 @_Py_IsImmortal(ptr noundef %0) #4 {
  %2 = alloca ptr, align 8
  store ptr %0, ptr %2, align 8, !tbaa !3
  %3 = load ptr, ptr %2, align 8, !tbaa !3
  %4 = getelementptr inbounds nuw %struct._object, ptr %3, i32 0, i32 0
  %5 = getelementptr inbounds nuw %struct.anon, ptr %4, i32 0, i32 0
  %6 = load i32, ptr %5, align 8, !tbaa !28
  %7 = icmp slt i32 %6, 0
  %8 = zext i1 %7 to i32
  ret i32 %8
}

; Function Attrs: inlinehint nounwind uwtable
define internal i64 @PyUnicode_GET_LENGTH(ptr noundef %0) #3 {
  %2 = alloca ptr, align 8
  store ptr %0, ptr %2, align 8, !tbaa !3
  %3 = load ptr, ptr %2, align 8, !tbaa !3
  %4 = getelementptr inbounds nuw %struct.PyASCIIObject, ptr %3, i32 0, i32 1
  %5 = load i64, ptr %4, align 8, !tbaa !30
  ret i64 %5
}

; Function Attrs: inlinehint nounwind uwtable
define internal i32 @PyType_HasFeature(ptr noundef %0, i64 noundef %1) #3 {
  %3 = alloca ptr, align 8
  %4 = alloca i64, align 8
  %5 = alloca i64, align 8
  store ptr %0, ptr %3, align 8, !tbaa !17
  store i64 %1, ptr %4, align 8, !tbaa !10
  call void @llvm.lifetime.start.p0(i64 8, ptr %5) #6
  %6 = load ptr, ptr %3, align 8, !tbaa !17
  %7 = getelementptr inbounds nuw %struct._typeobject, ptr %6, i32 0, i32 19
  %8 = load i64, ptr %7, align 8, !tbaa !19
  store i64 %8, ptr %5, align 8, !tbaa !10
  %9 = load i64, ptr %5, align 8, !tbaa !10
  %10 = load i64, ptr %4, align 8, !tbaa !10
  %11 = and i64 %9, %10
  %12 = icmp ne i64 %11, 0
  %13 = zext i1 %12 to i32
  call void @llvm.lifetime.end.p0(i64 8, ptr %5) #6
  ret i32 %13
}

; Function Attrs: inlinehint nounwind uwtable
define internal ptr @_Py_TYPE(ptr noundef %0) #3 {
  %2 = alloca ptr, align 8
  store ptr %0, ptr %2, align 8, !tbaa !3
  %3 = load ptr, ptr %2, align 8, !tbaa !3
  %4 = getelementptr inbounds nuw %struct._object, ptr %3, i32 0, i32 1
  %5 = load ptr, ptr %4, align 8, !tbaa !27
  ret ptr %5
}

; Function Attrs: inlinehint nounwind uwtable
define internal void @Py_XDECREF(ptr noundef %0) #3 {
  %2 = alloca ptr, align 8
  store ptr %0, ptr %2, align 8, !tbaa !3
  %3 = load ptr, ptr %2, align 8, !tbaa !3
  %4 = icmp ne ptr %3, null
  br i1 %4, label %5, label %7

5:                                                ; preds = %1
  %6 = load ptr, ptr %2, align 8, !tbaa !3
  call void @Py_DECREF(ptr noundef %6)
  br label %7

7:                                                ; preds = %5, %1
  ret void
}

; Function Attrs: alwaysinline nounwind uwtable
define internal void @Py_DECREF(ptr noundef %0) #4 {
  %2 = alloca ptr, align 8
  store ptr %0, ptr %2, align 8, !tbaa !3
  %3 = load ptr, ptr %2, align 8, !tbaa !3
  %4 = call i32 @_Py_IsImmortal(ptr noundef %3)
  %5 = icmp ne i32 %4, 0
  br i1 %5, label %6, label %7

6:                                                ; preds = %1
  br label %16

7:                                                ; preds = %1
  %8 = load ptr, ptr %2, align 8, !tbaa !3
  %9 = getelementptr inbounds nuw %struct._object, ptr %8, i32 0, i32 0
  %10 = getelementptr inbounds nuw %struct.anon, ptr %9, i32 0, i32 0
  %11 = load i32, ptr %10, align 8, !tbaa !28
  %12 = add i32 %11, -1
  store i32 %12, ptr %10, align 8, !tbaa !28
  %13 = icmp eq i32 %12, 0
  br i1 %13, label %14, label %16

14:                                               ; preds = %7
  %15 = load ptr, ptr %2, align 8, !tbaa !3
  call void @_Py_Dealloc(ptr noundef %15)
  br label %16

16:                                               ; preds = %6, %14, %7
  ret void
}

; Function Attrs: nounwind uwtable
define internal ptr @syslog_get_argv() #0 {
  %1 = alloca ptr, align 8
  %2 = alloca i64, align 8
  %3 = alloca i64, align 8
  %4 = alloca ptr, align 8
  %5 = alloca i64, align 8
  %6 = alloca ptr, align 8
  %7 = alloca i32, align 4
  call void @llvm.lifetime.start.p0(i64 8, ptr %2) #6
  call void @llvm.lifetime.start.p0(i64 8, ptr %3) #6
  call void @llvm.lifetime.start.p0(i64 8, ptr %4) #6
  call void @llvm.lifetime.start.p0(i64 8, ptr %5) #6
  call void @llvm.lifetime.start.p0(i64 8, ptr %6) #6
  %8 = call ptr @PySys_GetObject(ptr noundef @.str.15)
  store ptr %8, ptr %6, align 8, !tbaa !3
  %9 = load ptr, ptr %6, align 8, !tbaa !3
  %10 = icmp eq ptr %9, null
  br i1 %10, label %11, label %12

11:                                               ; preds = %0
  store ptr null, ptr %1, align 8
  store i32 1, ptr %7, align 4
  br label %59

12:                                               ; preds = %0
  %13 = load ptr, ptr %6, align 8, !tbaa !3
  %14 = call i64 @PyList_Size(ptr noundef %13)
  store i64 %14, ptr %2, align 8, !tbaa !10
  %15 = load i64, ptr %2, align 8, !tbaa !10
  %16 = icmp eq i64 %15, -1
  br i1 %16, label %17, label %18

17:                                               ; preds = %12
  call void @PyErr_Clear()
  store ptr null, ptr %1, align 8
  store i32 1, ptr %7, align 4
  br label %59

18:                                               ; preds = %12
  %19 = load i64, ptr %2, align 8, !tbaa !10
  %20 = icmp eq i64 %19, 0
  br i1 %20, label %21, label %22

21:                                               ; preds = %18
  store ptr null, ptr %1, align 8
  store i32 1, ptr %7, align 4
  br label %59

22:                                               ; preds = %18
  %23 = load ptr, ptr %6, align 8, !tbaa !3
  %24 = call ptr @PyList_GetItem(ptr noundef %23, i64 noundef 0)
  store ptr %24, ptr %4, align 8, !tbaa !3
  %25 = load ptr, ptr %4, align 8, !tbaa !3
  %26 = icmp eq ptr %25, null
  br i1 %26, label %27, label %28

27:                                               ; preds = %22
  call void @PyErr_Clear()
  store ptr null, ptr %1, align 8
  store i32 1, ptr %7, align 4
  br label %59

28:                                               ; preds = %22
  %29 = load ptr, ptr %4, align 8, !tbaa !3
  %30 = call ptr @_Py_TYPE(ptr noundef %29)
  %31 = call i32 @PyType_HasFeature(ptr noundef %30, i64 noundef 268435456)
  %32 = icmp ne i32 %31, 0
  br i1 %32, label %34, label %33

33:                                               ; preds = %28
  store ptr null, ptr %1, align 8
  store i32 1, ptr %7, align 4
  br label %59

34:                                               ; preds = %28
  %35 = load ptr, ptr %4, align 8, !tbaa !3
  %36 = call i64 @PyUnicode_GET_LENGTH(ptr noundef %35)
  store i64 %36, ptr %3, align 8, !tbaa !10
  %37 = load i64, ptr %3, align 8, !tbaa !10
  %38 = icmp eq i64 %37, 0
  br i1 %38, label %39, label %40

39:                                               ; preds = %34
  store ptr null, ptr %1, align 8
  store i32 1, ptr %7, align 4
  br label %59

40:                                               ; preds = %34
  %41 = load ptr, ptr %4, align 8, !tbaa !3
  %42 = load i64, ptr %3, align 8, !tbaa !10
  %43 = call i64 @PyUnicode_FindChar(ptr noundef %41, i32 noundef 47, i64 noundef 0, i64 noundef %42, i32 noundef -1)
  store i64 %43, ptr %5, align 8, !tbaa !10
  %44 = load i64, ptr %5, align 8, !tbaa !10
  %45 = icmp eq i64 %44, -2
  br i1 %45, label %46, label %47

46:                                               ; preds = %40
  call void @PyErr_Clear()
  store ptr null, ptr %1, align 8
  store i32 1, ptr %7, align 4
  br label %59

47:                                               ; preds = %40
  %48 = load i64, ptr %5, align 8, !tbaa !10
  %49 = icmp ne i64 %48, -1
  br i1 %49, label %50, label %56

50:                                               ; preds = %47
  %51 = load ptr, ptr %4, align 8, !tbaa !3
  %52 = load i64, ptr %5, align 8, !tbaa !10
  %53 = add i64 %52, 1
  %54 = load i64, ptr %3, align 8, !tbaa !10
  %55 = call ptr @PyUnicode_Substring(ptr noundef %51, i64 noundef %53, i64 noundef %54)
  store ptr %55, ptr %1, align 8
  store i32 1, ptr %7, align 4
  br label %59

56:                                               ; preds = %47
  %57 = load ptr, ptr %4, align 8, !tbaa !3
  call void @Py_INCREF(ptr noundef %57)
  %58 = load ptr, ptr %4, align 8, !tbaa !3
  store ptr %58, ptr %1, align 8
  store i32 1, ptr %7, align 4
  br label %59

59:                                               ; preds = %56, %50, %46, %39, %33, %27, %21, %17, %11
  call void @llvm.lifetime.end.p0(i64 8, ptr %6) #6
  call void @llvm.lifetime.end.p0(i64 8, ptr %5) #6
  call void @llvm.lifetime.end.p0(i64 8, ptr %4) #6
  call void @llvm.lifetime.end.p0(i64 8, ptr %3) #6
  call void @llvm.lifetime.end.p0(i64 8, ptr %2) #6
  %60 = load ptr, ptr %1, align 8
  ret ptr %60
}

; Function Attrs: alwaysinline nounwind uwtable
define internal void @Py_INCREF(ptr noundef %0) #4 {
  %2 = alloca ptr, align 8
  %3 = alloca i32, align 4
  %4 = alloca i32, align 4
  store ptr %0, ptr %2, align 8, !tbaa !3
  call void @llvm.lifetime.start.p0(i64 4, ptr %3) #6
  %5 = load ptr, ptr %2, align 8, !tbaa !3
  %6 = getelementptr inbounds nuw %struct._object, ptr %5, i32 0, i32 0
  %7 = getelementptr inbounds nuw %struct.anon, ptr %6, i32 0, i32 0
  %8 = load i32, ptr %7, align 8, !tbaa !28
  store i32 %8, ptr %3, align 4, !tbaa !12
  %9 = load i32, ptr %3, align 4, !tbaa !12
  %10 = icmp slt i32 %9, 0
  br i1 %10, label %11, label %12

11:                                               ; preds = %1
  store i32 1, ptr %4, align 4
  br label %18

12:                                               ; preds = %1
  %13 = load i32, ptr %3, align 4, !tbaa !12
  %14 = add i32 %13, 1
  %15 = load ptr, ptr %2, align 8, !tbaa !3
  %16 = getelementptr inbounds nuw %struct._object, ptr %15, i32 0, i32 0
  %17 = getelementptr inbounds nuw %struct.anon, ptr %16, i32 0, i32 0
  store i32 %14, ptr %17, align 8, !tbaa !28
  store i32 0, ptr %4, align 4
  br label %18

18:                                               ; preds = %12, %11
  call void @llvm.lifetime.end.p0(i64 4, ptr %3) #6
  %19 = load i32, ptr %4, align 4
  switch i32 %19, label %21 [
    i32 0, label %20
    i32 1, label %20
  ]

20:                                               ; preds = %18, %18
  ret void

21:                                               ; preds = %18
  unreachable
}

; Function Attrs: inlinehint nounwind uwtable
define internal i32 @is_main_interpreter() #3 {
  %1 = call ptr @PyInterpreterState_Get()
  %2 = call ptr @PyInterpreterState_Main()
  %3 = icmp eq ptr %1, %2
  %4 = zext i1 %3 to i32
  ret i32 %4
}

; Function Attrs: nounwind uwtable
define internal ptr @syslog_openlog_impl(ptr noundef %0, ptr noundef %1, i64 noundef %2, i64 noundef %3) #0 {
  %5 = alloca ptr, align 8
  %6 = alloca ptr, align 8
  %7 = alloca ptr, align 8
  %8 = alloca i64, align 8
  %9 = alloca i64, align 8
  %10 = alloca ptr, align 8
  %11 = alloca i32, align 4
  %12 = alloca ptr, align 8
  %13 = alloca ptr, align 8
  store ptr %0, ptr %6, align 8, !tbaa !3
  store ptr %1, ptr %7, align 8, !tbaa !3
  store i64 %2, ptr %8, align 8, !tbaa !10
  store i64 %3, ptr %9, align 8, !tbaa !10
  %14 = call i32 @is_main_interpreter()
  %15 = icmp ne i32 %14, 0
  br i1 %15, label %18, label %16

16:                                               ; preds = %4
  %17 = load ptr, ptr @PyExc_RuntimeError, align 8, !tbaa !3
  call void @PyErr_SetString(ptr noundef %17, ptr noundef @.str.12)
  store ptr null, ptr %5, align 8
  br label %65

18:                                               ; preds = %4
  call void @llvm.lifetime.start.p0(i64 8, ptr %10) #6
  store ptr null, ptr %10, align 8, !tbaa !14
  %19 = load ptr, ptr %7, align 8, !tbaa !3
  %20 = icmp ne ptr %19, null
  br i1 %20, label %21, label %23

21:                                               ; preds = %18
  %22 = load ptr, ptr %7, align 8, !tbaa !3
  call void @Py_INCREF(ptr noundef %22)
  br label %25

23:                                               ; preds = %18
  %24 = call ptr @syslog_get_argv()
  store ptr %24, ptr %7, align 8, !tbaa !3
  br label %25

25:                                               ; preds = %23, %21
  %26 = load ptr, ptr %7, align 8, !tbaa !3
  %27 = icmp ne ptr %26, null
  br i1 %27, label %28, label %36

28:                                               ; preds = %25
  %29 = load ptr, ptr %7, align 8, !tbaa !3
  %30 = call ptr @PyUnicode_AsUTF8(ptr noundef %29)
  store ptr %30, ptr %10, align 8, !tbaa !14
  %31 = load ptr, ptr %10, align 8, !tbaa !14
  %32 = icmp eq ptr %31, null
  br i1 %32, label %33, label %35

33:                                               ; preds = %28
  %34 = load ptr, ptr %7, align 8, !tbaa !3
  call void @Py_DECREF(ptr noundef %34)
  store ptr null, ptr %5, align 8
  store i32 1, ptr %11, align 4
  br label %64

35:                                               ; preds = %28
  br label %36

36:                                               ; preds = %35, %25
  %37 = load ptr, ptr %7, align 8, !tbaa !3
  %38 = icmp ne ptr %37, null
  br i1 %38, label %39, label %41

39:                                               ; preds = %36
  %40 = load ptr, ptr %7, align 8, !tbaa !3
  br label %42

41:                                               ; preds = %36
  br label %42

42:                                               ; preds = %41, %39
  %43 = phi ptr [ %40, %39 ], [ @_Py_NoneStruct, %41 ]
  %44 = load i64, ptr %8, align 8, !tbaa !10
  %45 = load i64, ptr %9, align 8, !tbaa !10
  %46 = call i32 (ptr, ptr, ...) @PySys_Audit(ptr noundef @.str.13, ptr noundef @.str.14, ptr noundef %43, i64 noundef %44, i64 noundef %45)
  %47 = icmp slt i32 %46, 0
  br i1 %47, label %48, label %50

48:                                               ; preds = %42
  %49 = load ptr, ptr %7, align 8, !tbaa !3
  call void @Py_XDECREF(ptr noundef %49)
  store ptr null, ptr %5, align 8
  store i32 1, ptr %11, align 4
  br label %64

50:                                               ; preds = %42
  %51 = load ptr, ptr %10, align 8, !tbaa !14
  %52 = load i64, ptr %8, align 8, !tbaa !10
  %53 = trunc i64 %52 to i32
  %54 = load i64, ptr %9, align 8, !tbaa !10
  %55 = trunc i64 %54 to i32
  call void @openlog(ptr noundef %51, i32 noundef %53, i32 noundef %55)
  store i8 1, ptr @S_log_open, align 1, !tbaa !28
  br label %56

56:                                               ; preds = %50
  call void @llvm.lifetime.start.p0(i64 8, ptr %12) #6
  store ptr @S_ident_o, ptr %12, align 8, !tbaa !8
  call void @llvm.lifetime.start.p0(i64 8, ptr %13) #6
  %57 = load ptr, ptr %12, align 8, !tbaa !8
  %58 = load ptr, ptr %57, align 8, !tbaa !3
  store ptr %58, ptr %13, align 8, !tbaa !3
  %59 = load ptr, ptr %7, align 8, !tbaa !3
  %60 = load ptr, ptr %12, align 8, !tbaa !8
  store ptr %59, ptr %60, align 8, !tbaa !3
  %61 = load ptr, ptr %13, align 8, !tbaa !3
  call void @Py_XDECREF(ptr noundef %61)
  call void @llvm.lifetime.end.p0(i64 8, ptr %13) #6
  call void @llvm.lifetime.end.p0(i64 8, ptr %12) #6
  br label %62

62:                                               ; preds = %56
  br label %63

63:                                               ; preds = %62
  store ptr @_Py_NoneStruct, ptr %5, align 8
  store i32 1, ptr %11, align 4
  br label %64

64:                                               ; preds = %63, %48, %33
  call void @llvm.lifetime.end.p0(i64 8, ptr %10) #6
  br label %65

65:                                               ; preds = %64, %16
  %66 = load ptr, ptr %5, align 8
  ret ptr %66
}