; Function Attrs: nounwind uwtable
define internal fastcc noundef ptr @syslog_openlog_impl(ptr noundef %0, i64 noundef %1, i64 noundef %2) unnamed_addr #0 {
  %4 = tail call ptr @PyInterpreterState_Get() #5
  %5 = tail call ptr @PyInterpreterState_Main() #5
  %.not = icmp eq ptr %4, %5
  br i1 %.not, label %8, label %6

6:                                                ; preds = %3
  %7 = load ptr, ptr @PyExc_RuntimeError, align 8, !tbaa !11
  tail call void @PyErr_SetString(ptr noundef %7, ptr noundef nonnull @.str.12) #5
  br label %Py_DECREF.exit

8:                                                ; preds = %3
  %.not22 = icmp eq ptr %0, null
  br i1 %.not22, label %12, label %9

9:                                                ; preds = %8
  %10 = load i32, ptr %0, align 8, !tbaa !22
  %11 = icmp slt i32 %10, 0
  br i1 %11, label %Py_INCREF.exit.thread6, label %Py_INCREF.exit.thread6.sink.split

12:                                               ; preds = %8
  %13 = tail call ptr @PySys_GetObject(ptr noundef nonnull @.str.15) #5
  %14 = icmp eq ptr %13, null
  br i1 %14, label %.thread, label %15

15:                                               ; preds = %12
  %16 = tail call i64 @PyList_Size(ptr noundef nonnull %13) #5
  switch i64 %16, label %17 [
    i64 -1, label %.thread.sink.split
    i64 0, label %.thread
  ]

17:                                               ; preds = %15
  %18 = tail call ptr @PyList_GetItem(ptr noundef nonnull %13, i64 noundef 0) #5
  %19 = icmp eq ptr %18, null
  br i1 %19, label %.thread.sink.split, label %20

20:                                               ; preds = %17
  %21 = getelementptr i8, ptr %18, i64 8
  %.val.i = load ptr, ptr %21, align 8, !tbaa !13
  %22 = getelementptr i8, ptr %.val.i, i64 168
  %.val24.i = load i64, ptr %22, align 8, !tbaa !14
  %23 = and i64 %.val24.i, 268435456
  %.not.i24 = icmp eq i64 %23, 0
  br i1 %.not.i24, label %.thread, label %24

24:                                               ; preds = %20
  %25 = getelementptr i8, ptr %18, i64 16
  %.val25.i = load i64, ptr %25, align 8, !tbaa !25
  %26 = icmp eq i64 %.val25.i, 0
  br i1 %26, label %.thread, label %27

27:                                               ; preds = %24
  %28 = tail call i64 @PyUnicode_FindChar(ptr noundef nonnull %18, i32 noundef 47, i64 noundef 0, i64 noundef %.val25.i, i32 noundef -1) #5
  switch i64 %28, label %Py_INCREF.exit [
    i64 -2, label %.thread.sink.split
    i64 -1, label %29
  ]

29:                                               ; preds = %27
  %30 = load i32, ptr %18, align 8, !tbaa !22
  %31 = icmp slt i32 %30, 0
  br i1 %31, label %Py_INCREF.exit.thread6, label %Py_INCREF.exit.thread6.sink.split

Py_INCREF.exit:                                   ; preds = %27
  %32 = add nuw i64 %28, 1
  %33 = tail call ptr @PyUnicode_Substring(ptr noundef nonnull %18, i64 noundef %32, i64 noundef %.val25.i) #5
  %.not23 = icmp eq ptr %33, null
  br i1 %.not23, label %43, label %Py_INCREF.exit.thread6

Py_INCREF.exit.thread6.sink.split:                ; preds = %29, %9
  %.sink32 = phi i32 [ %10, %9 ], [ %30, %29 ]
  %.sink31 = phi ptr [ %0, %9 ], [ %18, %29 ]
  %34 = add nuw i32 %.sink32, 1
  store i32 %34, ptr %.sink31, align 8, !tbaa !22
  br label %Py_INCREF.exit.thread6

Py_INCREF.exit.thread6:                           ; preds = %Py_INCREF.exit.thread6.sink.split, %29, %9, %Py_INCREF.exit
  %.0189 = phi ptr [ %33, %Py_INCREF.exit ], [ %18, %29 ], [ %0, %9 ], [ %.sink31, %Py_INCREF.exit.thread6.sink.split ]
  %35 = tail call ptr @PyUnicode_AsUTF8(ptr noundef nonnull %.0189) #5
  %36 = icmp eq ptr %35, null
  br i1 %36, label %37, label %.thread21

37:                                               ; preds = %Py_INCREF.exit.thread6
  %38 = load i32, ptr %.0189, align 8, !tbaa !22
  %.not.i = icmp sgt i32 %38, -1
  br i1 %.not.i, label %39, label %Py_DECREF.exit

39:                                               ; preds = %37
  %40 = add nsw i32 %38, -1
  store i32 %40, ptr %.0189, align 8, !tbaa !22
  %41 = icmp eq i32 %40, 0
  br i1 %41, label %42, label %Py_DECREF.exit

42:                                               ; preds = %39
  tail call void @_Py_Dealloc(ptr noundef nonnull %.0189) #5
  br label %Py_DECREF.exit

43:                                               ; preds = %Py_INCREF.exit
  %44 = tail call i32 (ptr, ptr, ...) @PySys_Audit(ptr noundef nonnull @.str.13, ptr noundef nonnull @.str.14, ptr noundef nonnull @_Py_NoneStruct, i64 noundef %1, i64 noundef %2) #5
  %45 = icmp slt i32 %44, 0
  br i1 %45, label %Py_DECREF.exit, label %56

.thread21:                                        ; preds = %Py_INCREF.exit.thread6
  %46 = tail call i32 (ptr, ptr, ...) @PySys_Audit(ptr noundef nonnull @.str.13, ptr noundef nonnull @.str.14, ptr noundef nonnull %.0189, i64 noundef %1, i64 noundef %2) #5
  %47 = icmp slt i32 %46, 0
  br i1 %47, label %50, label %56

.thread.sink.split:                               ; preds = %27, %17, %15
  tail call void @PyErr_Clear() #5
  br label %.thread

.thread:                                          ; preds = %.thread.sink.split, %24, %20, %15, %12
  %48 = tail call i32 (ptr, ptr, ...) @PySys_Audit(ptr noundef nonnull @.str.13, ptr noundef nonnull @.str.14, ptr noundef nonnull @_Py_NoneStruct, i64 noundef %1, i64 noundef %2) #5
  %49 = icmp slt i32 %48, 0
  br i1 %49, label %Py_DECREF.exit, label %56

50:                                               ; preds = %.thread21
  %51 = load i32, ptr %.0189, align 8, !tbaa !22
  %.not.i.i = icmp sgt i32 %51, -1
  br i1 %.not.i.i, label %52, label %Py_DECREF.exit

52:                                               ; preds = %50
  %53 = add nsw i32 %51, -1
  store i32 %53, ptr %.0189, align 8, !tbaa !22
  %54 = icmp eq i32 %53, 0
  br i1 %54, label %55, label %Py_DECREF.exit

55:                                               ; preds = %52
  tail call void @_Py_Dealloc(ptr noundef nonnull %.0189) #5
  br label %Py_DECREF.exit

56:                                               ; preds = %.thread21, %.thread, %43
  %.01917 = phi ptr [ null, %.thread ], [ null, %43 ], [ %35, %.thread21 ]
  %.018315 = phi ptr [ null, %.thread ], [ null, %43 ], [ %.0189, %.thread21 ]
  %57 = trunc i64 %1 to i32
  %58 = trunc i64 %2 to i32
  tail call void @openlog(ptr noundef %.01917, i32 noundef %57, i32 noundef %58) #5
  store i1 true, ptr @S_log_open, align 1
  %59 = load ptr, ptr @S_ident_o, align 8, !tbaa !11
  store ptr %.018315, ptr @S_ident_o, align 8, !tbaa !11
  %.not.i26 = icmp eq ptr %59, null
  br i1 %.not.i26, label %Py_DECREF.exit, label %60

60:                                               ; preds = %56
  %61 = load i32, ptr %59, align 8, !tbaa !22
  %.not.i.i27 = icmp sgt i32 %61, -1
  br i1 %.not.i.i27, label %62, label %Py_DECREF.exit

62:                                               ; preds = %60
  %63 = add nsw i32 %61, -1
  store i32 %63, ptr %59, align 8, !tbaa !22
  %64 = icmp eq i32 %63, 0
  br i1 %64, label %65, label %Py_DECREF.exit

65:                                               ; preds = %62
  tail call void @_Py_Dealloc(ptr noundef nonnull %59) #5
  br label %Py_DECREF.exit

Py_DECREF.exit:                                   ; preds = %43, %.thread, %65, %62, %60, %56, %55, %52, %50, %42, %39, %37, %6
  %.0 = phi ptr [ null, %6 ], [ null, %37 ], [ null, %39 ], [ null, %42 ], [ null, %50 ], [ null, %52 ], [ null, %55 ], [ @_Py_NoneStruct, %56 ], [ @_Py_NoneStruct, %60 ], [ @_Py_NoneStruct, %62 ], [ @_Py_NoneStruct, %65 ], [ null, %.thread ], [ null, %43 ]
  ret ptr %.0
}